TN:
SF:/home/vlad/vsCode/GoogleTest/-Google_Test_C-/test1.cpp
FN:11,11,_ZN35TestGroupName_Expect_Subtest_1_Test8TestBodyEv
FN:11,11,_ZN35TestGroupName_Expect_Subtest_1_TestC2Ev
FN:11,11,_ZN35TestGroupName_Expect_Subtest_1_TestD0Ev
FN:11,11,_ZN35TestGroupName_Expect_Subtest_1_TestD2Ev
FN:16,16,_ZN31TestGroup_Assert_Subtest_2_Test8TestBodyEv
FN:16,16,_ZN31TestGroup_Assert_Subtest_2_TestC2Ev
FN:16,16,_ZN31TestGroup_Assert_Subtest_2_TestD0Ev
FN:16,16,_ZN31TestGroup_Assert_Subtest_2_TestD2Ev
FN:21,21,_ZN35TestGroupName_Expect_Subtest_2_Test8TestBodyEv
FN:21,21,_ZN35TestGroupName_Expect_Subtest_2_TestC2Ev
FN:21,21,_ZN35TestGroupName_Expect_Subtest_2_TestD0Ev
FN:21,21,_ZN35TestGroupName_Expect_Subtest_2_TestD2Ev
FN:26,29,main
FN:6,6,_ZN31TestGroup_Assert_Subtest_1_Test8TestBodyEv
FN:6,6,_ZN31TestGroup_Assert_Subtest_1_TestC2Ev
FN:6,6,_ZN31TestGroup_Assert_Subtest_1_TestD0Ev
FN:6,6,_ZN31TestGroup_Assert_Subtest_1_TestD2Ev
FNDA:1,_ZN35TestGroupName_Expect_Subtest_1_Test8TestBodyEv
FNDA:1,_ZN35TestGroupName_Expect_Subtest_1_TestC2Ev
FNDA:1,_ZN35TestGroupName_Expect_Subtest_1_TestD0Ev
FNDA:1,_ZN35TestGroupName_Expect_Subtest_1_TestD2Ev
FNDA:1,_ZN31TestGroup_Assert_Subtest_2_Test8TestBodyEv
FNDA:1,_ZN31TestGroup_Assert_Subtest_2_TestC2Ev
FNDA:1,_ZN31TestGroup_Assert_Subtest_2_TestD0Ev
FNDA:1,_ZN31TestGroup_Assert_Subtest_2_TestD2Ev
FNDA:1,_ZN35TestGroupName_Expect_Subtest_2_Test8TestBodyEv
FNDA:1,_ZN35TestGroupName_Expect_Subtest_2_TestC2Ev
FNDA:1,_ZN35TestGroupName_Expect_Subtest_2_TestD0Ev
FNDA:1,_ZN35TestGroupName_Expect_Subtest_2_TestD2Ev
FNDA:1,main
FNDA:1,_ZN31TestGroup_Assert_Subtest_1_Test8TestBodyEv
FNDA:1,_ZN31TestGroup_Assert_Subtest_1_TestC2Ev
FNDA:1,_ZN31TestGroup_Assert_Subtest_1_TestD0Ev
FNDA:1,_ZN31TestGroup_Assert_Subtest_1_TestD2Ev
FNF:17
FNH:17
DA:6,4
DA:7,1
DA:8,1
DA:11,4
DA:12,1
DA:13,1
DA:14,1
DA:16,4
DA:17,1
DA:18,0
DA:21,4
DA:22,1
DA:23,1
DA:24,1
DA:26,1
DA:27,1
DA:28,1
LF:17
LH:16
end_of_record
TN:
SF:/home/vlad/vsCode/GoogleTest/-Google_Test_C-/test2.cpp
FN:14,14,_ZN14CalculatorMock3addEii
FN:14,14,_ZN14CalculatorMock9gmock_addERKN7testing7MatcherIiEES4_
FN:15,15,_ZN14CalculatorMock14gmock_subtractERKN7testing7MatcherIiEES4_
FN:15,15,_ZN14CalculatorMock8subtractEii
FN:16,16,_ZN14CalculatorMock14gmock_multiplyERKN7testing7MatcherIiEES4_
FN:16,16,_ZN14CalculatorMock8multiplyEii
FN:23,23,_ZN7MathAppC2EP19CalculatorInterface
FN:25,25,_ZN7MathApp12calculateSumEii
FN:26,26,_ZN7MathApp19calculateDifferenceEii
FN:27,27,_ZN7MathApp16calculateProductEii
FN:36,38,_ZN11MathAppTest5SetUpEv
FN:40,42,_ZN11MathAppTest8TearDownEv
FN:45,45,_ZN29MathAppTest_CalculateSum_Test8TestBodyEv
FN:45,45,_ZN29MathAppTest_CalculateSum_TestC2Ev
FN:45,45,_ZN29MathAppTest_CalculateSum_TestD0Ev
FN:45,45,_ZN29MathAppTest_CalculateSum_TestD2Ev
FN:51,55,_ZN36MathAppTest_CalculateDifference_Test8TestBodyEv
FN:51,55,_ZN36MathAppTest_CalculateDifference_TestC2Ev
FN:51,55,_ZN36MathAppTest_CalculateDifference_TestD0Ev
FN:51,55,_ZN36MathAppTest_CalculateDifference_TestD2Ev
FN:57,61,_ZN33MathAppTest_CalculateProduct_Test8TestBodyEv
FN:57,61,_ZN33MathAppTest_CalculateProduct_TestC2Ev
FN:57,61,_ZN33MathAppTest_CalculateProduct_TestD0Ev
FN:57,61,_ZN33MathAppTest_CalculateProduct_TestD2Ev
FN:6,6,_ZN19CalculatorInterfaceD0Ev
FN:6,6,_ZN19CalculatorInterfaceD2Ev
FN:63,66,main
FNDA:1,_ZN14CalculatorMock3addEii
FNDA:1,_ZN14CalculatorMock9gmock_addERKN7testing7MatcherIiEES4_
FNDA:1,_ZN14CalculatorMock14gmock_subtractERKN7testing7MatcherIiEES4_
FNDA:1,_ZN14CalculatorMock8subtractEii
FNDA:1,_ZN14CalculatorMock14gmock_multiplyERKN7testing7MatcherIiEES4_
FNDA:1,_ZN14CalculatorMock8multiplyEii
FNDA:3,_ZN7MathAppC2EP19CalculatorInterface
FNDA:1,_ZN7MathApp12calculateSumEii
FNDA:1,_ZN7MathApp19calculateDifferenceEii
FNDA:1,_ZN7MathApp16calculateProductEii
FNDA:3,_ZN11MathAppTest5SetUpEv
FNDA:3,_ZN11MathAppTest8TearDownEv
FNDA:1,_ZN29MathAppTest_CalculateSum_Test8TestBodyEv
FNDA:1,_ZN29MathAppTest_CalculateSum_TestC2Ev
FNDA:1,_ZN29MathAppTest_CalculateSum_TestD0Ev
FNDA:1,_ZN29MathAppTest_CalculateSum_TestD2Ev
FNDA:1,_ZN36MathAppTest_CalculateDifference_Test8TestBodyEv
FNDA:1,_ZN36MathAppTest_CalculateDifference_TestC2Ev
FNDA:1,_ZN36MathAppTest_CalculateDifference_TestD0Ev
FNDA:1,_ZN36MathAppTest_CalculateDifference_TestD2Ev
FNDA:1,_ZN33MathAppTest_CalculateProduct_Test8TestBodyEv
FNDA:1,_ZN33MathAppTest_CalculateProduct_TestC2Ev
FNDA:1,_ZN33MathAppTest_CalculateProduct_TestD0Ev
FNDA:1,_ZN33MathAppTest_CalculateProduct_TestD2Ev
FNDA:0,_ZN19CalculatorInterfaceD0Ev
FNDA:3,_ZN19CalculatorInterfaceD2Ev
FNDA:1,main
FNF:27
FNH:26
DA:6,3
DA:14,2
DA:15,2
DA:16,2
DA:23,3
DA:25,1
DA:26,1
DA:27,1
DA:36,3
DA:37,3
DA:38,3
DA:40,3
DA:41,3
DA:42,3
DA:45,4
DA:46,1
DA:47,1
DA:48,1
DA:51,4
DA:52,1
DA:53,1
DA:54,1
DA:57,4
DA:58,1
DA:59,1
DA:60,1
DA:63,1
DA:64,1
DA:65,1
LF:29
LH:29
end_of_record
TN:
SF:/home/vlad/vsCode/GoogleTest/-Google_Test_C-/test3.cpp
FN:100,103,main
FN:13,13,_ZN23PaymentServiceInterfaceD0Ev
FN:13,13,_ZN23PaymentServiceInterfaceD2Ev
FN:19,19,_ZN18MockProductService18isProductAvailableERKNSt7__cxx1112basic_stringIcSt11char_traitsIcESaIcEEE
FN:19,19,_ZN18MockProductService24gmock_isProductAvailableERKN7testing7MatcherIRKNSt7__cxx1112basic_stringIcSt11char_traitsIcESaIcEEEEE
FN:21,21,_ZN18MockProductService15getProductPriceERKNSt7__cxx1112basic_stringIcSt11char_traitsIcESaIcEEE
FN:21,21,_ZN18MockProductService21gmock_getProductPriceERKN7testing7MatcherIRKNSt7__cxx1112basic_stringIcSt11char_traitsIcESaIcEEEEE
FN:27,27,_ZN18MockPaymentService14processPaymentEd
FN:27,27,_ZN18MockPaymentService20gmock_processPaymentERKN7testing7MatcherIdEE
FN:36,38,_ZN5OrderC2EP23ProductServiceInterfaceP23PaymentServiceInterface
FN:40,49,_ZN5Order10placeOrderERKNSt7__cxx1112basic_stringIcSt11char_traitsIcESaIcEEEi
FN:58,60,_ZN9OrderTest5SetUpEv
FN:6,6,_ZN23ProductServiceInterfaceD0Ev
FN:6,6,_ZN23ProductServiceInterfaceD2Ev
FN:62,62,_ZN9OrderTest8TearDownEv
FN:65,65,_ZN33OrderTest_PlaceOrder_Success_Test8TestBodyEv
FN:65,65,_ZN33OrderTest_PlaceOrder_Success_TestC2Ev
FN:65,65,_ZN33OrderTest_PlaceOrder_Success_TestD0Ev
FN:65,65,_ZN33OrderTest_PlaceOrder_Success_TestD2Ev
FN:79,79,_ZN44OrderTest_PlaceOrder_ProductUnavailable_Test8TestBodyEv
FN:79,79,_ZN44OrderTest_PlaceOrder_ProductUnavailable_TestC2Ev
FN:79,79,_ZN44OrderTest_PlaceOrder_ProductUnavailable_TestD0Ev
FN:79,79,_ZN44OrderTest_PlaceOrder_ProductUnavailable_TestD2Ev
FN:87,98,_ZN39OrderTest_PlaceOrder_PaymentFailed_Test8TestBodyEv
FN:87,98,_ZN39OrderTest_PlaceOrder_PaymentFailed_TestC2Ev
FN:87,98,_ZN39OrderTest_PlaceOrder_PaymentFailed_TestD0Ev
FN:87,98,_ZN39OrderTest_PlaceOrder_PaymentFailed_TestD2Ev
FNDA:1,main
FNDA:0,_ZN23PaymentServiceInterfaceD0Ev
FNDA:3,_ZN23PaymentServiceInterfaceD2Ev
FNDA:3,_ZN18MockProductService18isProductAvailableERKNSt7__cxx1112basic_stringIcSt11char_traitsIcESaIcEEE
FNDA:3,_ZN18MockProductService24gmock_isProductAvailableERKN7testing7MatcherIRKNSt7__cxx1112basic_stringIcSt11char_traitsIcESaIcEEEEE
FNDA:2,_ZN18MockProductService15getProductPriceERKNSt7__cxx1112basic_stringIcSt11char_traitsIcESaIcEEE
FNDA:2,_ZN18MockProductService21gmock_getProductPriceERKN7testing7MatcherIRKNSt7__cxx1112basic_stringIcSt11char_traitsIcESaIcEEEEE
FNDA:2,_ZN18MockPaymentService14processPaymentEd
FNDA:2,_ZN18MockPaymentService20gmock_processPaymentERKN7testing7MatcherIdEE
FNDA:3,_ZN5OrderC2EP23ProductServiceInterfaceP23PaymentServiceInterface
FNDA:3,_ZN5Order10placeOrderERKNSt7__cxx1112basic_stringIcSt11char_traitsIcESaIcEEEi
FNDA:3,_ZN9OrderTest5SetUpEv
FNDA:0,_ZN23ProductServiceInterfaceD0Ev
FNDA:3,_ZN23ProductServiceInterfaceD2Ev
FNDA:3,_ZN9OrderTest8TearDownEv
FNDA:1,_ZN33OrderTest_PlaceOrder_Success_Test8TestBodyEv
FNDA:1,_ZN33OrderTest_PlaceOrder_Success_TestC2Ev
FNDA:1,_ZN33OrderTest_PlaceOrder_Success_TestD0Ev
FNDA:1,_ZN33OrderTest_PlaceOrder_Success_TestD2Ev
FNDA:1,_ZN44OrderTest_PlaceOrder_ProductUnavailable_Test8TestBodyEv
FNDA:1,_ZN44OrderTest_PlaceOrder_ProductUnavailable_TestC2Ev
FNDA:1,_ZN44OrderTest_PlaceOrder_ProductUnavailable_TestD0Ev
FNDA:1,_ZN44OrderTest_PlaceOrder_ProductUnavailable_TestD2Ev
FNDA:1,_ZN39OrderTest_PlaceOrder_PaymentFailed_Test8TestBodyEv
FNDA:1,_ZN39OrderTest_PlaceOrder_PaymentFailed_TestC2Ev
FNDA:1,_ZN39OrderTest_PlaceOrder_PaymentFailed_TestD0Ev
FNDA:1,_ZN39OrderTest_PlaceOrder_PaymentFailed_TestD2Ev
FNF:27
FNH:25
DA:6,3
DA:13,3
DA:19,6
DA:21,4
DA:27,4
DA:36,3
DA:38,3
DA:40,3
DA:41,3
DA:42,1
DA:45,2
DA:46,2
DA:48,2
DA:58,3
DA:59,3
DA:60,3
DA:62,3
DA:65,4
DA:67,2
DA:68,1
DA:69,2
DA:70,1
DA:72,2
DA:73,1
DA:75,2
DA:76,1
DA:79,4
DA:80,2
DA:81,1
DA:83,2
DA:84,1
DA:87,4
DA:88,2
DA:89,1
DA:90,2
DA:91,1
DA:93,2
DA:94,1
DA:96,2
DA:97,1
DA:100,1
DA:101,1
DA:102,1
LF:43
LH:43
end_of_record
TN:
SF:/home/vlad/vsCode/GoogleTest/-Google_Test_C-/test4.cpp
FN:10,10,_ZN19CalculatorInterfaceD0Ev
FN:10,10,_ZN19CalculatorInterfaceD2Ev
FN:18,18,_ZN14CalculatorMock3addEii
FN:18,18,_ZN14CalculatorMock9gmock_addERKN7testing7MatcherIiEES4_
FN:19,19,_ZN14CalculatorMock14gmock_subtractERKN7testing7MatcherIiEES4_
FN:19,19,_ZN14CalculatorMock8subtractEii
FN:20,20,_ZN14CalculatorMock14gmock_multiplyERKN7testing7MatcherIiEES4_
FN:20,20,_ZN14CalculatorMock8multiplyEii
FN:27,27,_ZN7MathAppC2EP19CalculatorInterface
FN:29,29,_ZN7MathApp12calculateSumEii
FN:30,30,_ZN7MathApp19calculateDifferenceEii
FN:31,31,_ZN7MathApp16calculateProductEii
FN:46,56,_ZN11MathAppTest5SetUpEv
FN:58,58,_ZN11MathAppTest8TearDownEv
FN:62,67,_ZN29MathAppTest_CalculateSum_Test13AddToRegistryEv
FN:62,67,_ZN29MathAppTest_CalculateSum_Test8TestBodyEv
FN:62,67,_ZN29MathAppTest_CalculateSum_TestC2Ev
FN:70,75,_ZN36MathAppTest_CalculateDifference_Test13AddToRegistryEv
FN:70,75,_ZN36MathAppTest_CalculateDifference_Test8TestBodyEv
FN:70,75,_ZN36MathAppTest_CalculateDifference_TestC2Ev
FN:78,78,_ZN33MathAppTest_CalculateProduct_Test13AddToRegistryEv
FN:78,78,_ZN33MathAppTest_CalculateProduct_Test8TestBodyEv
FN:78,78,_ZN33MathAppTest_CalculateProduct_TestC2Ev
FN:86,86,_ZL44gtest_MathAppTestsMathAppTest_EvalGenerator_v
FN:86,86,_ZL47gtest_MathAppTestsMathAppTest_EvalGenerateName_RKN7testing13TestParamInfoISt6vectorIiSaIiEEEE
FN:94,97,main
FNDA:0,_ZN19CalculatorInterfaceD0Ev
FNDA:9,_ZN19CalculatorInterfaceD2Ev
FNDA:3,_ZN14CalculatorMock3addEii
FNDA:3,_ZN14CalculatorMock9gmock_addERKN7testing7MatcherIiEES4_
FNDA:3,_ZN14CalculatorMock14gmock_subtractERKN7testing7MatcherIiEES4_
FNDA:3,_ZN14CalculatorMock8subtractEii
FNDA:3,_ZN14CalculatorMock14gmock_multiplyERKN7testing7MatcherIiEES4_
FNDA:3,_ZN14CalculatorMock8multiplyEii
FNDA:9,_ZN7MathAppC2EP19CalculatorInterface
FNDA:3,_ZN7MathApp12calculateSumEii
FNDA:3,_ZN7MathApp19calculateDifferenceEii
FNDA:3,_ZN7MathApp16calculateProductEii
FNDA:9,_ZN11MathAppTest5SetUpEv
FNDA:9,_ZN11MathAppTest8TearDownEv
FNDA:1,_ZN29MathAppTest_CalculateSum_Test13AddToRegistryEv
FNDA:3,_ZN29MathAppTest_CalculateSum_Test8TestBodyEv
FNDA:3,_ZN29MathAppTest_CalculateSum_TestC2Ev
FNDA:1,_ZN36MathAppTest_CalculateDifference_Test13AddToRegistryEv
FNDA:3,_ZN36MathAppTest_CalculateDifference_Test8TestBodyEv
FNDA:3,_ZN36MathAppTest_CalculateDifference_TestC2Ev
FNDA:1,_ZN33MathAppTest_CalculateProduct_Test13AddToRegistryEv
FNDA:3,_ZN33MathAppTest_CalculateProduct_Test8TestBodyEv
FNDA:3,_ZN33MathAppTest_CalculateProduct_TestC2Ev
FNDA:3,_ZL44gtest_MathAppTestsMathAppTest_EvalGenerator_v
FNDA:9,_ZL47gtest_MathAppTestsMathAppTest_EvalGenerateName_RKN7testing13TestParamInfoISt6vectorIiSaIiEEEE
FNDA:1,main
FNF:26
FNH:25
DA:10,9
DA:18,6
DA:19,6
DA:20,6
DA:27,9
DA:29,3
DA:30,3
DA:31,3
DA:46,9
DA:47,9
DA:50,9
DA:51,9
DA:52,9
DA:53,9
DA:54,9
DA:55,9
DA:56,9
DA:58,9
DA:62,13
DA:63,6
DA:64,3
DA:65,3
DA:66,3
DA:70,13
DA:71,6
DA:72,3
DA:73,3
DA:74,3
DA:78,13
DA:79,6
DA:80,3
DA:81,3
DA:82,3
DA:86,30
DA:94,1
DA:95,1
DA:96,1
LF:37
LH:37
end_of_record
